target datalayout = "e-m:e-p270:32:32-p271:32:32-p272:64:64-i64:64-i128:128-f80:128-n8:16:32:64-S128"
target triple = "x86_64-pc-linux-gnu"

%class.b3Vector3 = type { %union.anon.3 }
%union.anon.3 = type { [4 x float] }
%class.b3AlignedObjectArray.5 = type <{ [4 x i8], i32, i32, [4 x i8], ptr, i8, [7 x i8] }>

; Function Attrs: inlinehint mustprogress nounwind uwtable
define linkonce_odr dso_local void @_ZN9b3Vector38setValueERKfS1_S1_(ptr noundef nonnull align 16 dereferenceable(16) %0, ptr noundef nonnull align 4 dereferenceable(4) %1, ptr noundef nonnull align 4 dereferenceable(4) %2, ptr noundef nonnull align 4 dereferenceable(4) %3) #7 comdat align 2 {
  %5 = alloca ptr, align 8
  %6 = alloca ptr, align 8
  %7 = alloca ptr, align 8
  %8 = alloca ptr, align 8
  store ptr %0, ptr %5, align 8, !tbaa !50
  store ptr %1, ptr %6, align 8, !tbaa !92
  store ptr %2, ptr %7, align 8, !tbaa !92
  store ptr %3, ptr %8, align 8, !tbaa !92
  %9 = load ptr, ptr %5, align 8
  %10 = load ptr, ptr %6, align 8, !tbaa !92
  %11 = load float, ptr %10, align 4, !tbaa !84
  %12 = getelementptr inbounds nuw %class.b3Vector3, ptr %9, i32 0, i32 0
  %13 = getelementptr inbounds [4 x float], ptr %12, i64 0, i64 0
  store float %11, ptr %13, align 16, !tbaa !52
  %14 = load ptr, ptr %7, align 8, !tbaa !92
  %15 = load float, ptr %14, align 4, !tbaa !84
  %16 = getelementptr inbounds nuw %class.b3Vector3, ptr %9, i32 0, i32 0
  %17 = getelementptr inbounds [4 x float], ptr %16, i64 0, i64 1
  store float %15, ptr %17, align 4, !tbaa !52
  %18 = load ptr, ptr %8, align 8, !tbaa !92
  %19 = load float, ptr %18, align 4, !tbaa !84
  %20 = getelementptr inbounds nuw %class.b3Vector3, ptr %9, i32 0, i32 0
  %21 = getelementptr inbounds [4 x float], ptr %20, i64 0, i64 2
  store float %19, ptr %21, align 8, !tbaa !52
  %22 = getelementptr inbounds nuw %class.b3Vector3, ptr %9, i32 0, i32 0
  %23 = getelementptr inbounds [4 x float], ptr %22, i64 0, i64 3
  store float 0.000000e+00, ptr %23, align 4, !tbaa !52
  ret void
}

; Function Attrs: inlinehint mustprogress nounwind uwtable
define linkonce_odr dso_local noundef nonnull align 16 dereferenceable(16) ptr @_ZN9b3Vector3pLERKS_(ptr noundef nonnull align 16 dereferenceable(16) %0, ptr noundef nonnull align 16 dereferenceable(16) %1) #7 comdat align 2 {
  %3 = alloca ptr, align 8
  %4 = alloca ptr, align 8
  store ptr %0, ptr %3, align 8, !tbaa !50
  store ptr %1, ptr %4, align 8, !tbaa !50
  %5 = load ptr, ptr %3, align 8
  %6 = load ptr, ptr %4, align 8, !tbaa !50
  %7 = getelementptr inbounds nuw %class.b3Vector3, ptr %6, i32 0, i32 0
  %8 = getelementptr inbounds [4 x float], ptr %7, i64 0, i64 0
  %9 = load float, ptr %8, align 16, !tbaa !52
  %10 = getelementptr inbounds nuw %class.b3Vector3, ptr %5, i32 0, i32 0
  %11 = getelementptr inbounds [4 x float], ptr %10, i64 0, i64 0
  %12 = load float, ptr %11, align 16, !tbaa !52
  %13 = fadd float %12, %9
  store float %13, ptr %11, align 16, !tbaa !52
  %14 = load ptr, ptr %4, align 8, !tbaa !50
  %15 = getelementptr inbounds nuw %class.b3Vector3, ptr %14, i32 0, i32 0
  %16 = getelementptr inbounds [4 x float], ptr %15, i64 0, i64 1
  %17 = load float, ptr %16, align 4, !tbaa !52
  %18 = getelementptr inbounds nuw %class.b3Vector3, ptr %5, i32 0, i32 0
  %19 = getelementptr inbounds [4 x float], ptr %18, i64 0, i64 1
  %20 = load float, ptr %19, align 4, !tbaa !52
  %21 = fadd float %20, %17
  store float %21, ptr %19, align 4, !tbaa !52
  %22 = load ptr, ptr %4, align 8, !tbaa !50
  %23 = getelementptr inbounds nuw %class.b3Vector3, ptr %22, i32 0, i32 0
  %24 = getelementptr inbounds [4 x float], ptr %23, i64 0, i64 2
  %25 = load float, ptr %24, align 8, !tbaa !52
  %26 = getelementptr inbounds nuw %class.b3Vector3, ptr %5, i32 0, i32 0
  %27 = getelementptr inbounds [4 x float], ptr %26, i64 0, i64 2
  %28 = load float, ptr %27, align 8, !tbaa !52
  %29 = fadd float %28, %25
  store float %29, ptr %27, align 8, !tbaa !52
  ret ptr %5
}

; Function Attrs: inlinehint mustprogress nounwind uwtable
define linkonce_odr dso_local noundef nonnull align 16 dereferenceable(16) ptr @_ZN20b3AlignedObjectArrayI9b3Vector3EixEi(ptr noundef nonnull align 8 dereferenceable(25) %0, i32 noundef %1) #7 comdat align 2 {
  %3 = alloca ptr, align 8
  %4 = alloca i32, align 4
  store ptr %0, ptr %3, align 8, !tbaa !81
  store i32 %1, ptr %4, align 4, !tbaa !15
  %5 = load ptr, ptr %3, align 8
  %6 = getelementptr inbounds nuw %class.b3AlignedObjectArray.5, ptr %5, i32 0, i32 4
  %7 = load ptr, ptr %6, align 8, !tbaa !86
  %8 = load i32, ptr %4, align 4, !tbaa !15
  %9 = sext i32 %8 to i64
  %10 = getelementptr inbounds %class.b3Vector3, ptr %7, i64 %9
  ret ptr %10
}

; Function Attrs: inlinehint mustprogress uwtable
define linkonce_odr dso_local { <2 x float>, <2 x float> } @_Z13b3MakeVector3fff(float noundef %0, float noundef %1, float noundef %2) #4 comdat {
  %4 = alloca %class.b3Vector3, align 16
  %5 = alloca float, align 4
  %6 = alloca float, align 4
  %7 = alloca float, align 4
  store float %0, ptr %5, align 4, !tbaa !84
  store float %1, ptr %6, align 4, !tbaa !84
  store float %2, ptr %7, align 4, !tbaa !84
  call void @_ZN9b3Vector38setValueERKfS1_S1_(ptr noundef nonnull align 16 dereferenceable(16) %4, ptr noundef nonnull align 4 dereferenceable(4) %5, ptr noundef nonnull align 4 dereferenceable(4) %6, ptr noundef nonnull align 4 dereferenceable(4) %7)
  %8 = getelementptr inbounds nuw %class.b3Vector3, ptr %4, i32 0, i32 0
  %9 = getelementptr inbounds nuw %union.anon.3, ptr %8, i32 0, i32 0
  %10 = load { <2 x float>, <2 x float> }, ptr %9, align 16
  ret { <2 x float>, <2 x float> } %10
}

; Function Attrs: mustprogress uwtable
define dso_local void @_ZN20b3PrefixScanFloat4CL11executeHostER20b3AlignedObjectArrayI9b3Vector3ES3_iPS1_(ptr noundef nonnull align 8 dereferenceable(48) %0, ptr noundef nonnull align 8 dereferenceable(25) %1, ptr noundef nonnull align 8 dereferenceable(25) %2, i32 noundef %3, ptr noundef %4) #10 align 2 {
  %6 = alloca ptr, align 8
  %7 = alloca ptr, align 8
  %8 = alloca ptr, align 8
  %9 = alloca i32, align 4
  %10 = alloca ptr, align 8
  %11 = alloca %class.b3Vector3, align 16
  %12 = alloca i32, align 4
  store ptr %0, ptr %6, align 8, !tbaa !4
  store ptr %1, ptr %7, align 8, !tbaa !81
  store ptr %2, ptr %8, align 8, !tbaa !81
  store i32 %3, ptr %9, align 4, !tbaa !15
  store ptr %4, ptr %10, align 8, !tbaa !50
  call void @llvm.lifetime.start.p0(i64 16, ptr %11) #12
  %13 = call { <2 x float>, <2 x float> } @_Z13b3MakeVector3fff(float noundef 0.000000e+00, float noundef 0.000000e+00, float noundef 0.000000e+00)
  %14 = getelementptr inbounds nuw %class.b3Vector3, ptr %11, i32 0, i32 0
  %15 = getelementptr inbounds nuw %union.anon.3, ptr %14, i32 0, i32 0
  %16 = getelementptr inbounds nuw { <2 x float>, <2 x float> }, ptr %15, i32 0, i32 0
  %17 = extractvalue { <2 x float>, <2 x float> } %13, 0
  store <2 x float> %17, ptr %16, align 16
  %18 = getelementptr inbounds nuw { <2 x float>, <2 x float> }, ptr %15, i32 0, i32 1
  %19 = extractvalue { <2 x float>, <2 x float> } %13, 1
  store <2 x float> %19, ptr %18, align 8
  call void @llvm.lifetime.start.p0(i64 4, ptr %12) #12
  store i32 0, ptr %12, align 4, !tbaa !15
  br label %20

20:                                               ; preds = %33, %5
  %21 = load i32, ptr %12, align 4, !tbaa !15
  %22 = load i32, ptr %9, align 4, !tbaa !15
  %23 = icmp slt i32 %21, %22
  br i1 %23, label %25, label %24

24:                                               ; preds = %20
  call void @llvm.lifetime.end.p0(i64 4, ptr %12) #12
  br label %36

25:                                               ; preds = %20
  %26 = load ptr, ptr %8, align 8, !tbaa !81
  %27 = load i32, ptr %12, align 4, !tbaa !15
  %28 = call noundef nonnull align 16 dereferenceable(16) ptr @_ZN20b3AlignedObjectArrayI9b3Vector3EixEi(ptr noundef nonnull align 8 dereferenceable(25) %26, i32 noundef %27)
  call void @llvm.memcpy.p0.p0.i64(ptr align 16 %28, ptr align 16 %11, i64 16, i1 false), !tbaa.struct !77
  %29 = load ptr, ptr %7, align 8, !tbaa !81
  %30 = load i32, ptr %12, align 4, !tbaa !15
  %31 = call noundef nonnull align 16 dereferenceable(16) ptr @_ZN20b3AlignedObjectArrayI9b3Vector3EixEi(ptr noundef nonnull align 8 dereferenceable(25) %29, i32 noundef %30)
  %32 = call noundef nonnull align 16 dereferenceable(16) ptr @_ZN9b3Vector3pLERKS_(ptr noundef nonnull align 16 dereferenceable(16) %11, ptr noundef nonnull align 16 dereferenceable(16) %31)
  br label %33

33:                                               ; preds = %25
  %34 = load i32, ptr %12, align 4, !tbaa !15
  %35 = add nsw i32 %34, 1
  store i32 %35, ptr %12, align 4, !tbaa !15
  br label %20, !llvm.loop !83

36:                                               ; preds = %24
  %37 = load ptr, ptr %10, align 8, !tbaa !50
  %38 = icmp ne ptr %37, null
  br i1 %38, label %39, label %45

39:                                               ; preds = %36
  %40 = load ptr, ptr %8, align 8, !tbaa !81
  %41 = load i32, ptr %9, align 4, !tbaa !15
  %42 = sub nsw i32 %41, 1
  %43 = call noundef nonnull align 16 dereferenceable(16) ptr @_ZN20b3AlignedObjectArrayI9b3Vector3EixEi(ptr noundef nonnull align 8 dereferenceable(25) %40, i32 noundef %42)
  %44 = load ptr, ptr %10, align 8, !tbaa !50
  call void @llvm.memcpy.p0.p0.i64(ptr align 16 %44, ptr align 16 %43, i64 16, i1 false), !tbaa.struct !77
  br label %45

45:                                               ; preds = %39, %36
  call void @llvm.lifetime.end.p0(i64 16, ptr %11) #12
  ret void
}