; Function Attrs: mustprogress nofree norecurse nosync nounwind memory(readwrite, inaccessiblemem: none) uwtable
define dso_local void @_ZN20b3PrefixScanFloat4CL11executeHostER20b3AlignedObjectArrayI9b3Vector3ES3_iPS1_(ptr noundef nonnull readnone align 8 captures(none) dereferenceable(48) %0, ptr noundef nonnull readonly align 8 captures(none) dereferenceable(25) %1, ptr noundef nonnull readonly align 8 captures(none) dereferenceable(25) %2, i32 noundef %3, ptr noundef writeonly captures(address_is_null) %4) local_unnamed_addr #10 align 2 {
  %6 = icmp sgt i32 %3, 0
  br i1 %6, label %.lr.ph, label %._crit_edge

.lr.ph:                                           ; preds = %5
  %7 = getelementptr inbounds nuw i8, ptr %2, i64 16
  %8 = getelementptr inbounds nuw i8, ptr %1, i64 16
  %wide.trip.count = zext nneg i32 %3 to i64
  br label %9

._crit_edge:                                      ; preds = %9, %5
  %.not = icmp eq ptr %4, null
  br i1 %.not, label %28, label %22

9:                                                ; preds = %.lr.ph, %9
  %indvars.iv = phi i64 [ 0, %.lr.ph ], [ %indvars.iv.next, %9 ]
  %.sroa.0.016 = phi <2 x float> [ zeroinitializer, %.lr.ph ], [ %.sroa.0.4.vec.insert, %9 ]
  %.sroa.8.015 = phi <2 x float> [ zeroinitializer, %.lr.ph ], [ %.sroa.8.8.vec.insert, %9 ]
  %10 = load ptr, ptr %7, align 8, !tbaa !63
  %11 = getelementptr inbounds nuw %class.b3Vector3, ptr %10, i64 %indvars.iv
  store <2 x float> %.sroa.0.016, ptr %11, align 16
  %.sroa.8.0..sroa_idx = getelementptr inbounds nuw i8, ptr %11, i64 8
  store <2 x float> %.sroa.8.015, ptr %.sroa.8.0..sroa_idx, align 8, !tbaa !35
  %12 = load ptr, ptr %8, align 8, !tbaa !63
  %13 = getelementptr inbounds nuw %class.b3Vector3, ptr %12, i64 %indvars.iv
  %14 = load float, ptr %13, align 16, !tbaa !35
  %.sroa.0.0.vec.extract = extractelement <2 x float> %.sroa.0.016, i64 0
  %15 = fadd float %.sroa.0.0.vec.extract, %14
  %.sroa.0.0.vec.insert = insertelement <2 x float> poison, float %15, i64 0
  %16 = getelementptr inbounds nuw i8, ptr %13, i64 4
  %17 = load float, ptr %16, align 4, !tbaa !35
  %.sroa.0.4.vec.extract = extractelement <2 x float> %.sroa.0.016, i64 1
  %18 = fadd float %.sroa.0.4.vec.extract, %17
  %.sroa.0.4.vec.insert = insertelement <2 x float> %.sroa.0.0.vec.insert, float %18, i64 1
  %19 = getelementptr inbounds nuw i8, ptr %13, i64 8
  %20 = load float, ptr %19, align 8, !tbaa !35
  %.sroa.8.8.vec.extract = extractelement <2 x float> %.sroa.8.015, i64 0
  %21 = fadd float %.sroa.8.8.vec.extract, %20
  %.sroa.8.8.vec.insert = insertelement <2 x float> %.sroa.8.015, float %21, i64 0
  %indvars.iv.next = add nuw nsw i64 %indvars.iv, 1
  %exitcond.not = icmp eq i64 %indvars.iv.next, %wide.trip.count
  br i1 %exitcond.not, label %._crit_edge, label %9, !llvm.loop !67

22:                                               ; preds = %._crit_edge
  %23 = getelementptr inbounds nuw i8, ptr %2, i64 16
  %24 = load ptr, ptr %23, align 8, !tbaa !63
  %25 = sext i32 %3 to i64
  %26 = getelementptr %class.b3Vector3, ptr %24, i64 %25
  %27 = getelementptr i8, ptr %26, i64 -16
  tail call void @llvm.memcpy.p0.p0.i64(ptr noundef nonnull align 16 dereferenceable(16) %4, ptr noundef nonnull align 16 dereferenceable(16) %27, i64 16, i1 false), !tbaa.struct !51
  br label %28

28:                                               ; preds = %22, %._crit_edge
  ret void
}